; Function Attrs: mustprogress uwtable
define noundef ptr @_ZN16PointEditFactory11getEditToolEPK7QAction(ptr nocapture noundef nonnull readonly align 8 dereferenceable(80) %0, ptr noundef readnone %1) unnamed_addr #9 align 2 personality ptr @__gxx_personality_v0 {
  %3 = getelementptr inbounds i8, ptr %0, i64 64
  %4 = load ptr, ptr %3, align 8
  %5 = icmp eq ptr %4, %1
  br i1 %5, label %6, label %12

6:                                                ; preds = %2
  %7 = tail call noalias noundef nonnull dereferenceable(1416) ptr @_Znwm(i64 noundef 1416) #20
  invoke void @_ZN15EditPointPluginC1Ei(ptr noundef nonnull align 8 dereferenceable(1416) %7, i32 noundef 0)
          to label %8 unwind label %10

8:                                                ; preds = %6
  %9 = getelementptr inbounds i8, ptr %7, i64 16
  br label %22

10:                                               ; preds = %6
  %11 = landingpad { ptr, i32 }
          cleanup
  br label %23

12:                                               ; preds = %2
  %13 = getelementptr inbounds i8, ptr %0, i64 72
  %14 = load ptr, ptr %13, align 8
  %15 = icmp eq ptr %14, %1
  br i1 %15, label %16, label %22

16:                                               ; preds = %12
  %17 = tail call noalias noundef nonnull dereferenceable(1416) ptr @_Znwm(i64 noundef 1416) #20
  invoke void @_ZN15EditPointPluginC1Ei(ptr noundef nonnull align 8 dereferenceable(1416) %17, i32 noundef 1)
          to label %18 unwind label %20

18:                                               ; preds = %16
  %19 = getelementptr inbounds i8, ptr %17, i64 16
  br label %22

20:                                               ; preds = %16
  %21 = landingpad { ptr, i32 }
          cleanup
  br label %23

22:                                               ; preds = %12, %18, %8
  %.07 = phi ptr [ %9, %8 ], [ %19, %18 ], [ null, %12 ]
  ret ptr %.07

23:                                               ; preds = %20, %10
  %.sink = phi ptr [ %17, %20 ], [ %7, %10 ]
  %.pn = phi { ptr, i32 } [ %21, %20 ], [ %11, %10 ]
  tail call void @_ZdlPv(ptr noundef nonnull %.sink) #16
  resume { ptr, i32 } %.pn
}